target datalayout = "e-m:e-p270:32:32-p271:32:32-p272:64:64-i64:64-i128:128-f80:128-n8:16:32:64-S128"
target triple = "x86_64-pc-linux-gnu"

%struct.b2BodyId = type { i32, i16, i16 }
%struct.b2Vec2 = type { float, float }
%struct.b2Rot = type { float, float }
%struct.b2BodyArray = type { ptr, i32, i32 }
%struct.b2BodySimArray = type { ptr, i32, i32 }
%struct.b2BodyStateArray = type { ptr, i32, i32 }
%struct.b2World = type { %struct.b2ArenaAllocator, %struct.b2BroadPhase, %struct.b2ConstraintGraph, %struct.b2IdPool, %struct.b2BodyArray, %struct.b2IdPool, %struct.b2SolverSetArray, %struct.b2IdPool, %struct.b2JointArray, %struct.b2IdPool, %struct.b2ContactArray, %struct.b2IdPool, %struct.b2IslandArray, %struct.b2IdPool, %struct.b2IdPool, %struct.b2ShapeArray, %struct.b2ChainShapeArray, %struct.b2SensorArray, %struct.b2TaskContextArray, %struct.b2SensorTaskContextArray, %struct.b2BodyMoveEventArray, %struct.b2SensorBeginTouchEventArray, %struct.b2ContactBeginTouchEventArray, [2 x %struct.b2SensorEndTouchEventArray], [2 x %struct.b2ContactEndTouchEventArray], i32, %struct.b2ContactHitEventArray, %struct.b2BitSet, %struct.b2BitSet, %struct.b2BitSet, i64, i32, %struct.b2Vec2, float, float, float, float, float, float, float, float, ptr, ptr, i16, %struct.b2Profile, ptr, ptr, ptr, ptr, i32, ptr, ptr, ptr, ptr, ptr, float, i32, i32, i16, i8, i8, i8, i8, i8, i8 }
%struct.b2ArenaAllocator = type { ptr, i32, i32, i32, i32, %struct.b2ArenaEntryArray }
%struct.b2ArenaEntryArray = type { ptr, i32, i32 }
%struct.b2BroadPhase = type { [3 x %struct.b2DynamicTree], i32, %struct.b2HashSet, %struct.b2IntArray, ptr, ptr, i32, %struct.b2AtomicInt, %struct.b2HashSet }
%struct.b2DynamicTree = type { ptr, i32, i32, i32, i32, i32, ptr, ptr, ptr, ptr, i32 }
%struct.b2IntArray = type { ptr, i32, i32 }
%struct.b2AtomicInt = type { i32 }
%struct.b2HashSet = type { ptr, i32, i32 }
%struct.b2ConstraintGraph = type { [12 x %struct.b2GraphColor] }
%struct.b2GraphColor = type { %struct.b2BitSet, %struct.b2ContactSimArray, %struct.b2JointSimArray, %union.anon }
%struct.b2ContactSimArray = type { ptr, i32, i32 }
%struct.b2JointSimArray = type { ptr, i32, i32 }
%union.anon = type { ptr }
%struct.b2SolverSetArray = type { ptr, i32, i32 }
%struct.b2JointArray = type { ptr, i32, i32 }
%struct.b2ContactArray = type { ptr, i32, i32 }
%struct.b2IslandArray = type { ptr, i32, i32 }
%struct.b2IdPool = type { %struct.b2IntArray, i32 }
%struct.b2ShapeArray = type { ptr, i32, i32 }
%struct.b2ChainShapeArray = type { ptr, i32, i32 }
%struct.b2SensorArray = type { ptr, i32, i32 }
%struct.b2TaskContextArray = type { ptr, i32, i32 }
%struct.b2SensorTaskContextArray = type { ptr, i32, i32 }
%struct.b2BodyMoveEventArray = type { ptr, i32, i32 }
%struct.b2SensorBeginTouchEventArray = type { ptr, i32, i32 }
%struct.b2ContactBeginTouchEventArray = type { ptr, i32, i32 }
%struct.b2SensorEndTouchEventArray = type { ptr, i32, i32 }
%struct.b2ContactEndTouchEventArray = type { ptr, i32, i32 }
%struct.b2ContactHitEventArray = type { ptr, i32, i32 }
%struct.b2BitSet = type { ptr, i32, i32 }
%struct.b2Profile = type { float, float, float, float, float, float, float, float, float, float, float, float, float, float, float, float, float, float, float, float, float, float }
%struct.b2Body = type { [32 x i8], ptr, i32, i32, i32, i32, i32, i32, i32, i32, i32, i32, i32, i32, float, float, float, float, i32, i32, i32, i16, i8, i8, i8, i8 }
%struct.b2Transform = type { %struct.b2Vec2, %struct.b2Rot }
%struct.b2SolverSet = type { %struct.b2BodySimArray, %struct.b2BodyStateArray, %struct.b2JointSimArray, %struct.b2ContactSimArray, %struct.b2IslandSimArray, i32 }
%struct.b2IslandSimArray = type { ptr, i32, i32 }
%struct.b2BodySim = type { %struct.b2Transform, %struct.b2Vec2, %struct.b2Rot, %struct.b2Vec2, %struct.b2Vec2, %struct.b2Vec2, float, float, float, float, float, float, float, float, i32, i8, i8, i8, i8, i8 }

; Function Attrs: inlinehint nounwind uwtable
define internal ptr @b2BodySimArray_Get(ptr noundef %0, i32 noundef %1) #3 {
  %3 = alloca ptr, align 8
  %4 = alloca i32, align 4
  store ptr %0, ptr %3, align 8, !tbaa !12
  store i32 %1, ptr %4, align 4, !tbaa !3
  %5 = load ptr, ptr %3, align 8, !tbaa !12
  %6 = getelementptr inbounds nuw %struct.b2BodySimArray, ptr %5, i32 0, i32 0
  %7 = load ptr, ptr %6, align 8, !tbaa !14
  %8 = load i32, ptr %4, align 4, !tbaa !3
  %9 = sext i32 %8 to i64
  %10 = getelementptr inbounds %struct.b2BodySim, ptr %7, i64 %9
  ret ptr %10
}

; Function Attrs: inlinehint nounwind uwtable
define internal ptr @b2SolverSetArray_Get(ptr noundef %0, i32 noundef %1) #3 {
  %3 = alloca ptr, align 8
  %4 = alloca i32, align 4
  store ptr %0, ptr %3, align 8, !tbaa !12
  store i32 %1, ptr %4, align 4, !tbaa !3
  %5 = load ptr, ptr %3, align 8, !tbaa !12
  %6 = getelementptr inbounds nuw %struct.b2SolverSetArray, ptr %5, i32 0, i32 0
  %7 = load ptr, ptr %6, align 8, !tbaa !40
  %8 = load i32, ptr %4, align 4, !tbaa !3
  %9 = sext i32 %8 to i64
  %10 = getelementptr inbounds %struct.b2SolverSet, ptr %7, i64 %9
  ret ptr %10
}

; Function Attrs: inlinehint nounwind uwtable
define internal ptr @b2BodyArray_Get(ptr noundef %0, i32 noundef %1) #3 {
  %3 = alloca ptr, align 8
  %4 = alloca i32, align 4
  store ptr %0, ptr %3, align 8, !tbaa !12
  store i32 %1, ptr %4, align 4, !tbaa !3
  %5 = load ptr, ptr %3, align 8, !tbaa !12
  %6 = getelementptr inbounds nuw %struct.b2BodyArray, ptr %5, i32 0, i32 0
  %7 = load ptr, ptr %6, align 8, !tbaa !7
  %8 = load i32, ptr %4, align 4, !tbaa !3
  %9 = sext i32 %8 to i64
  %10 = getelementptr inbounds %struct.b2Body, ptr %7, i64 %9
  ret ptr %10
}

; Function Attrs: nounwind uwtable
define hidden ptr @b2GetBodySim(ptr noundef %0, ptr noundef %1) #0 {
  %3 = alloca ptr, align 8
  %4 = alloca ptr, align 8
  %5 = alloca ptr, align 8
  %6 = alloca ptr, align 8
  store ptr %0, ptr %3, align 8, !tbaa !24
  store ptr %1, ptr %4, align 8, !tbaa !29
  call void @llvm.lifetime.start.p0(i64 8, ptr %5) #8
  %7 = load ptr, ptr %3, align 8, !tbaa !24
  %8 = getelementptr inbounds nuw %struct.b2World, ptr %7, i32 0, i32 6
  %9 = load ptr, ptr %4, align 8, !tbaa !29
  %10 = getelementptr inbounds nuw %struct.b2Body, ptr %9, i32 0, i32 2
  %11 = load i32, ptr %10, align 8, !tbaa !30
  %12 = call ptr @b2SolverSetArray_Get(ptr noundef %8, i32 noundef %11)
  store ptr %12, ptr %5, align 8, !tbaa !34
  call void @llvm.lifetime.start.p0(i64 8, ptr %6) #8
  %13 = load ptr, ptr %5, align 8, !tbaa !34
  %14 = getelementptr inbounds nuw %struct.b2SolverSet, ptr %13, i32 0, i32 0
  %15 = load ptr, ptr %4, align 8, !tbaa !29
  %16 = getelementptr inbounds nuw %struct.b2Body, ptr %15, i32 0, i32 3
  %17 = load i32, ptr %16, align 4, !tbaa !36
  %18 = call ptr @b2BodySimArray_Get(ptr noundef %14, i32 noundef %17)
  store ptr %18, ptr %6, align 8, !tbaa !37
  %19 = load ptr, ptr %6, align 8, !tbaa !37
  call void @llvm.lifetime.end.p0(i64 8, ptr %6) #8
  call void @llvm.lifetime.end.p0(i64 8, ptr %5) #8
  ret ptr %19
}

; Function Attrs: nounwind uwtable
define hidden ptr @b2GetBodyFullId(ptr noundef %0, i64 %1) #0 {
  %3 = alloca %struct.b2BodyId, align 4
  %4 = alloca ptr, align 8
  store i64 %1, ptr %3, align 4
  store ptr %0, ptr %4, align 8, !tbaa !24
  %5 = load ptr, ptr %4, align 8, !tbaa !24
  %6 = getelementptr inbounds nuw %struct.b2World, ptr %5, i32 0, i32 4
  %7 = getelementptr inbounds nuw %struct.b2BodyId, ptr %3, i32 0, i32 0
  %8 = load i32, ptr %7, align 4, !tbaa !26
  %9 = sub nsw i32 %8, 1
  %10 = call ptr @b2BodyArray_Get(ptr noundef %6, i32 noundef %9)
  ret ptr %10
}

; Function Attrs: nounwind uwtable
define float @b2Body_GetLinearDamping(i64 %0) #0 {
  %2 = alloca %struct.b2BodyId, align 4
  %3 = alloca ptr, align 8
  %4 = alloca ptr, align 8
  %5 = alloca ptr, align 8
  store i64 %0, ptr %2, align 4
  call void @llvm.lifetime.start.p0(i64 8, ptr %3) #8
  %6 = getelementptr inbounds nuw %struct.b2BodyId, ptr %2, i32 0, i32 1
  %7 = load i16, ptr %6, align 4, !tbaa !87
  %8 = zext i16 %7 to i32
  %9 = call ptr @b2GetWorld(i32 noundef %8)
  store ptr %9, ptr %3, align 8, !tbaa !24
  call void @llvm.lifetime.start.p0(i64 8, ptr %4) #8
  %10 = load ptr, ptr %3, align 8, !tbaa !24
  %11 = load i64, ptr %2, align 4
  %12 = call ptr @b2GetBodyFullId(ptr noundef %10, i64 %11)
  store ptr %12, ptr %4, align 8, !tbaa !29
  call void @llvm.lifetime.start.p0(i64 8, ptr %5) #8
  %13 = load ptr, ptr %3, align 8, !tbaa !24
  %14 = load ptr, ptr %4, align 8, !tbaa !29
  %15 = call ptr @b2GetBodySim(ptr noundef %13, ptr noundef %14)
  store ptr %15, ptr %5, align 8, !tbaa !37
  %16 = load ptr, ptr %5, align 8, !tbaa !37
  %17 = getelementptr inbounds nuw %struct.b2BodySim, ptr %16, i32 0, i32 11
  %18 = load float, ptr %17, align 4, !tbaa !124
  call void @llvm.lifetime.end.p0(i64 8, ptr %5) #8
  call void @llvm.lifetime.end.p0(i64 8, ptr %4) #8
  call void @llvm.lifetime.end.p0(i64 8, ptr %3) #8
  ret float %18
}